target datalayout = "e-m:e-p270:32:32-p271:32:32-p272:64:64-i64:64-i128:128-f80:128-n8:16:32:64-S128"
target triple = "x86_64-pc-linux-gnu"

%struct.ref_iterator = type { ptr, ptr, ptr, ptr, i32 }

; Function Attrs: nounwind uwtable
define internal i32 @overlay_iterator_select(ptr noundef %0, ptr noundef %1, ptr noundef %2) #0 {
  %4 = alloca i32, align 4
  %5 = alloca ptr, align 8
  %6 = alloca ptr, align 8
  %7 = alloca ptr, align 8
  %8 = alloca i32, align 4
  %9 = alloca i32, align 4
  store ptr %0, ptr %5, align 8, !tbaa !4
  store ptr %1, ptr %6, align 8, !tbaa !4
  store ptr %2, ptr %7, align 8, !tbaa !27
  call void @llvm.lifetime.start.p0(i64 4, ptr %8) #6
  %10 = load ptr, ptr %6, align 8, !tbaa !4
  %11 = icmp ne ptr %10, null
  br i1 %11, label %16, label %12

12:                                               ; preds = %3
  %13 = load ptr, ptr %5, align 8, !tbaa !4
  %14 = icmp ne ptr %13, null
  %15 = select i1 %14, i32 2, i32 -1
  store i32 %15, ptr %4, align 4
  store i32 1, ptr %9, align 4
  br label %37

16:                                               ; preds = %3
  %17 = load ptr, ptr %5, align 8, !tbaa !4
  %18 = icmp ne ptr %17, null
  br i1 %18, label %20, label %19

19:                                               ; preds = %16
  store i32 3, ptr %4, align 4
  store i32 1, ptr %9, align 4
  br label %37

20:                                               ; preds = %16
  br label %21

21:                                               ; preds = %20
  %22 = load ptr, ptr %5, align 8, !tbaa !4
  %23 = getelementptr inbounds nuw %struct.ref_iterator, ptr %22, i32 0, i32 1
  %24 = load ptr, ptr %23, align 8, !tbaa !21
  %25 = load ptr, ptr %6, align 8, !tbaa !4
  %26 = getelementptr inbounds nuw %struct.ref_iterator, ptr %25, i32 0, i32 1
  %27 = load ptr, ptr %26, align 8, !tbaa !21
  %28 = call i32 @strcmp(ptr noundef %24, ptr noundef %27) #7
  store i32 %28, ptr %8, align 4, !tbaa !28
  %29 = load i32, ptr %8, align 4, !tbaa !28
  %30 = icmp slt i32 %29, 0
  br i1 %30, label %31, label %32

31:                                               ; preds = %21
  store i32 2, ptr %4, align 4
  store i32 1, ptr %9, align 4
  br label %37

32:                                               ; preds = %21
  %33 = load i32, ptr %8, align 4, !tbaa !28
  %34 = icmp sgt i32 %33, 0
  br i1 %34, label %35, label %36

35:                                               ; preds = %32
  store i32 3, ptr %4, align 4
  store i32 1, ptr %9, align 4
  br label %37

36:                                               ; preds = %32
  store i32 6, ptr %4, align 4
  store i32 1, ptr %9, align 4
  br label %37

37:                                               ; preds = %36, %35, %31, %19, %12
  call void @llvm.lifetime.end.p0(i64 4, ptr %8) #6
  %38 = load i32, ptr %4, align 4
  ret i32 %38
}