; Function Attrs: mustprogress nofree nounwind willreturn memory(read, inaccessiblemem: none) uwtable
define internal range(i32 -1, 7) i32 @overlay_iterator_select(ptr noundef readonly %0, ptr noundef readonly %1, ptr readnone captures(none) %2) #7 {
  %.not = icmp eq ptr %1, null
  %.not10 = icmp eq ptr %0, null
  br i1 %.not, label %4, label %6

4:                                                ; preds = %3
  %5 = select i1 %.not10, i32 -1, i32 2
  br label %15

6:                                                ; preds = %3
  br i1 %.not10, label %15, label %7

7:                                                ; preds = %6
  %8 = getelementptr inbounds nuw i8, ptr %0, i64 8
  %9 = load ptr, ptr %8, align 8, !tbaa !17
  %10 = getelementptr inbounds nuw i8, ptr %1, i64 8
  %11 = load ptr, ptr %10, align 8, !tbaa !17
  %12 = tail call i32 @strcmp(ptr noundef nonnull dereferenceable(1) %9, ptr noundef nonnull dereferenceable(1) %11) #12
  %13 = icmp slt i32 %12, 0
  br i1 %13, label %15, label %14

14:                                               ; preds = %7
  %.not12 = icmp eq i32 %12, 0
  %. = select i1 %.not12, i32 6, i32 3
  br label %15

15:                                               ; preds = %14, %7, %6, %4
  %.0 = phi i32 [ %5, %4 ], [ 3, %6 ], [ 2, %7 ], [ %., %14 ]
  ret i32 %.0
}